; Function Attrs: mustprogress uwtable
define hidden void @_ZN3smt11farkas_util5resetEv(ptr noundef nonnull readonly align 8 captures(none) dereferenceable(128) %0) local_unnamed_addr #3 align 2 personality ptr @__gxx_personality_v0 {
  %2 = getelementptr inbounds nuw i8, ptr %0, i64 24
  %3 = getelementptr inbounds nuw i8, ptr %0, i64 32
  %4 = load ptr, ptr %3, align 8, !tbaa !52
  %5 = icmp eq ptr %4, null
  br i1 %5, label %_ZN15ref_vector_coreI3app19ref_manager_wrapperIS0_11ast_managerEE5resetEv.exit, label %_ZNK6vectorIP3appLb0EjE4sizeEv.exit.i

_ZNK6vectorIP3appLb0EjE4sizeEv.exit.i:            ; preds = %1
  %6 = getelementptr inbounds i8, ptr %4, i64 -4
  %7 = load i32, ptr %6, align 4, !tbaa !58
  %8 = zext i32 %7 to i64
  %9 = getelementptr inbounds nuw ptr, ptr %4, i64 %8
  %.not.i = icmp eq i32 %7, 0
  br i1 %.not.i, label %_ZN15ref_vector_coreI3app19ref_manager_wrapperIS0_11ast_managerEE13dec_range_refEPKPS0_S7_.exit.thread4.i, label %.lr.ph.i.i

.lr.ph.i.i:                                       ; preds = %_ZNK6vectorIP3appLb0EjE4sizeEv.exit.i, %_ZN15ref_vector_coreI3app19ref_manager_wrapperIS0_11ast_managerEE7dec_refEPS0_.exit.i.i
  %.06.i.i = phi ptr [ %18, %_ZN15ref_vector_coreI3app19ref_manager_wrapperIS0_11ast_managerEE7dec_refEPS0_.exit.i.i ], [ %4, %_ZNK6vectorIP3appLb0EjE4sizeEv.exit.i ]
  %10 = load ptr, ptr %.06.i.i, align 8, !tbaa !53
  %11 = load ptr, ptr %2, align 8, !tbaa !91
  %.not.i.i.i.i.i = icmp eq ptr %10, null
  br i1 %.not.i.i.i.i.i, label %_ZN15ref_vector_coreI3app19ref_manager_wrapperIS0_11ast_managerEE7dec_refEPS0_.exit.i.i, label %12

12:                                               ; preds = %.lr.ph.i.i
  %13 = getelementptr inbounds nuw i8, ptr %10, i64 8
  %14 = load i32, ptr %13, align 4, !tbaa !50
  %15 = add i32 %14, -1
  store i32 %15, ptr %13, align 4, !tbaa !50
  %16 = icmp eq i32 %15, 0
  br i1 %16, label %17, label %_ZN15ref_vector_coreI3app19ref_manager_wrapperIS0_11ast_managerEE7dec_refEPS0_.exit.i.i

17:                                               ; preds = %12
  tail call void @_ZN11ast_manager11delete_nodeEP3ast(ptr noundef nonnull align 8 dereferenceable(976) %11, ptr noundef nonnull %10)
  br label %_ZN15ref_vector_coreI3app19ref_manager_wrapperIS0_11ast_managerEE7dec_refEPS0_.exit.i.i

_ZN15ref_vector_coreI3app19ref_manager_wrapperIS0_11ast_managerEE7dec_refEPS0_.exit.i.i: ; preds = %17, %12, %.lr.ph.i.i
  %18 = getelementptr inbounds nuw i8, ptr %.06.i.i, i64 8
  %19 = icmp ult ptr %18, %9
  br i1 %19, label %.lr.ph.i.i, label %_ZN15ref_vector_coreI3app19ref_manager_wrapperIS0_11ast_managerEE13dec_range_refEPKPS0_S7_.exit.i, !llvm.loop !116

_ZN15ref_vector_coreI3app19ref_manager_wrapperIS0_11ast_managerEE13dec_range_refEPKPS0_S7_.exit.i: ; preds = %_ZN15ref_vector_coreI3app19ref_manager_wrapperIS0_11ast_managerEE7dec_refEPS0_.exit.i.i
  %.pre.i = load ptr, ptr %3, align 8, !tbaa !52
  %.not.i.i = icmp eq ptr %.pre.i, null
  br i1 %.not.i.i, label %_ZN15ref_vector_coreI3app19ref_manager_wrapperIS0_11ast_managerEE5resetEv.exit, label %_ZN15ref_vector_coreI3app19ref_manager_wrapperIS0_11ast_managerEE13dec_range_refEPKPS0_S7_.exit.thread4.i

_ZN15ref_vector_coreI3app19ref_manager_wrapperIS0_11ast_managerEE13dec_range_refEPKPS0_S7_.exit.thread4.i: ; preds = %_ZN15ref_vector_coreI3app19ref_manager_wrapperIS0_11ast_managerEE13dec_range_refEPKPS0_S7_.exit.i, %_ZNK6vectorIP3appLb0EjE4sizeEv.exit.i
  %20 = phi ptr [ %.pre.i, %_ZN15ref_vector_coreI3app19ref_manager_wrapperIS0_11ast_managerEE13dec_range_refEPKPS0_S7_.exit.i ], [ %4, %_ZNK6vectorIP3appLb0EjE4sizeEv.exit.i ]
  %21 = getelementptr inbounds i8, ptr %20, i64 -4
  store i32 0, ptr %21, align 4, !tbaa !58
  br label %_ZN15ref_vector_coreI3app19ref_manager_wrapperIS0_11ast_managerEE5resetEv.exit

_ZN15ref_vector_coreI3app19ref_manager_wrapperIS0_11ast_managerEE5resetEv.exit: ; preds = %1, %_ZN15ref_vector_coreI3app19ref_manager_wrapperIS0_11ast_managerEE13dec_range_refEPKPS0_S7_.exit.i, %_ZN15ref_vector_coreI3app19ref_manager_wrapperIS0_11ast_managerEE13dec_range_refEPKPS0_S7_.exit.thread4.i
  %22 = getelementptr inbounds nuw i8, ptr %0, i64 40
  %23 = load ptr, ptr %22, align 8, !tbaa !57
  %.not.i1 = icmp eq ptr %23, null
  br i1 %.not.i1, label %_ZN6vectorI8rationalLb1EjE5resetEv.exit, label %_ZNK6vectorI8rationalLb1EjE4sizeEv.exit.i.i

_ZNK6vectorI8rationalLb1EjE4sizeEv.exit.i.i:      ; preds = %_ZN15ref_vector_coreI3app19ref_manager_wrapperIS0_11ast_managerEE5resetEv.exit
  %24 = getelementptr inbounds i8, ptr %23, i64 -4
  %25 = load i32, ptr %24, align 4, !tbaa !58
  %.not6.i.i.i.i.i = icmp eq i32 %25, 0
  br i1 %.not6.i.i.i.i.i, label %_ZN6vectorI8rationalLb1EjE16destroy_elementsEv.exit.i, label %.lr.ph.i.i.i.i.i

.lr.ph.i.i.i.i.i:                                 ; preds = %_ZNK6vectorI8rationalLb1EjE4sizeEv.exit.i.i, %_ZSt8_DestroyI8rationalEvPT_.exit.i.i.i.i.i
  %.08.i.i.i.i.i = phi i32 [ %32, %_ZSt8_DestroyI8rationalEvPT_.exit.i.i.i.i.i ], [ %25, %_ZNK6vectorI8rationalLb1EjE4sizeEv.exit.i.i ]
  %.047.i.i.i.i.i = phi ptr [ %31, %_ZSt8_DestroyI8rationalEvPT_.exit.i.i.i.i.i ], [ %23, %_ZNK6vectorI8rationalLb1EjE4sizeEv.exit.i.i ]
  %26 = load ptr, ptr @_ZN8rational13g_mpq_managerE, align 8, !tbaa !55
  invoke void @_ZN11mpz_managerILb1EE3delEPS0_R3mpz(ptr noundef %26, ptr noundef nonnull align 8 dereferenceable(32) %.047.i.i.i.i.i)
          to label %.noexc.i.i.i.i.i.i.i.i unwind label %28

.noexc.i.i.i.i.i.i.i.i:                           ; preds = %.lr.ph.i.i.i.i.i
  %27 = getelementptr inbounds nuw i8, ptr %.047.i.i.i.i.i, i64 16
  invoke void @_ZN11mpz_managerILb1EE3delEPS0_R3mpz(ptr noundef %26, ptr noundef nonnull align 8 dereferenceable(16) %27)
          to label %_ZSt8_DestroyI8rationalEvPT_.exit.i.i.i.i.i unwind label %28

28:                                               ; preds = %.noexc.i.i.i.i.i.i.i.i, %.lr.ph.i.i.i.i.i
  %29 = landingpad { ptr, i32 }
          catch ptr null
  %30 = extractvalue { ptr, i32 } %29, 0
  tail call void @__clang_call_terminate(ptr %30) #20
  unreachable

_ZSt8_DestroyI8rationalEvPT_.exit.i.i.i.i.i:      ; preds = %.noexc.i.i.i.i.i.i.i.i
  %31 = getelementptr inbounds nuw i8, ptr %.047.i.i.i.i.i, i64 32
  %32 = add i32 %.08.i.i.i.i.i, -1
  %.not.i.i.i.i.i2 = icmp eq i32 %32, 0
  br i1 %.not.i.i.i.i.i2, label %_ZN6vectorI8rationalLb1EjE16destroy_elementsEv.exit.loopexit.i, label %.lr.ph.i.i.i.i.i, !llvm.loop !117

_ZN6vectorI8rationalLb1EjE16destroy_elementsEv.exit.loopexit.i: ; preds = %_ZSt8_DestroyI8rationalEvPT_.exit.i.i.i.i.i
  %.pre.i3 = load ptr, ptr %22, align 8, !tbaa !57
  br label %_ZN6vectorI8rationalLb1EjE16destroy_elementsEv.exit.i

_ZN6vectorI8rationalLb1EjE16destroy_elementsEv.exit.i: ; preds = %_ZN6vectorI8rationalLb1EjE16destroy_elementsEv.exit.loopexit.i, %_ZNK6vectorI8rationalLb1EjE4sizeEv.exit.i.i
  %33 = phi ptr [ %.pre.i3, %_ZN6vectorI8rationalLb1EjE16destroy_elementsEv.exit.loopexit.i ], [ %23, %_ZNK6vectorI8rationalLb1EjE4sizeEv.exit.i.i ]
  %34 = getelementptr inbounds i8, ptr %33, i64 -4
  store i32 0, ptr %34, align 4, !tbaa !58
  br label %_ZN6vectorI8rationalLb1EjE5resetEv.exit

_ZN6vectorI8rationalLb1EjE5resetEv.exit:          ; preds = %_ZN15ref_vector_coreI3app19ref_manager_wrapperIS0_11ast_managerEE5resetEv.exit, %_ZN6vectorI8rationalLb1EjE16destroy_elementsEv.exit.i
  ret void
}